target datalayout = "e-m:e-p270:32:32-p271:32:32-p272:64:64-i64:64-i128:128-f80:128-n8:16:32:64-S128"
target triple = "x86_64-pc-linux-gnu"

%struct.wkt2_tokens = type { ptr, i32 }
%"class.std::__cxx11::basic_string" = type { %"struct.std::__cxx11::basic_string<char>::_Alloc_hider", i64, %union.anon }
%"struct.std::__cxx11::basic_string<char>::_Alloc_hider" = type { ptr }
%union.anon = type { i64, [8 x i8] }
%struct.pj_wkt_parse_context = type { ptr, ptr, ptr, %"class.std::__cxx11::basic_string" }

@.str = private unnamed_addr constant [4 x i8] c"\E2\80\9C\00", align 1
@.str.1 = private unnamed_addr constant [4 x i8] c"\E2\80\9D\00", align 1

; Function Attrs: mustprogress nounwind uwtable
define hidden i32 @pj_wkt2_lex(ptr noundef %0, ptr noundef %1) #2 {
  %3 = alloca i32, align 4
  %4 = alloca ptr, align 8
  %5 = alloca ptr, align 8
  %6 = alloca i64, align 8
  %7 = alloca ptr, align 8
  %8 = alloca ptr, align 8
  %9 = alloca ptr, align 8
  store ptr %0, ptr %4, align 8
  store ptr %1, ptr %5, align 8
  %10 = load ptr, ptr %5, align 8
  %11 = getelementptr inbounds %struct.pj_wkt_parse_context, ptr %10, i32 0, i32 2
  %12 = load ptr, ptr %11, align 8
  store ptr %12, ptr %7, align 8
  br label %13

13:                                               ; preds = %35, %2
  %14 = load ptr, ptr %7, align 8
  %15 = load i8, ptr %14, align 1
  %16 = sext i8 %15 to i32
  %17 = icmp eq i32 %16, 32
  br i1 %17, label %33, label %18

18:                                               ; preds = %13
  %19 = load ptr, ptr %7, align 8
  %20 = load i8, ptr %19, align 1
  %21 = sext i8 %20 to i32
  %22 = icmp eq i32 %21, 9
  br i1 %22, label %33, label %23

23:                                               ; preds = %18
  %24 = load ptr, ptr %7, align 8
  %25 = load i8, ptr %24, align 1
  %26 = sext i8 %25 to i32
  %27 = icmp eq i32 %26, 10
  br i1 %27, label %33, label %28

28:                                               ; preds = %23
  %29 = load ptr, ptr %7, align 8
  %30 = load i8, ptr %29, align 1
  %31 = sext i8 %30 to i32
  %32 = icmp eq i32 %31, 13
  br label %33

33:                                               ; preds = %28, %23, %18, %13
  %34 = phi i1 [ true, %23 ], [ true, %18 ], [ true, %13 ], [ %32, %28 ]
  br i1 %34, label %35, label %38

35:                                               ; preds = %33
  %36 = load ptr, ptr %7, align 8
  %37 = getelementptr inbounds i8, ptr %36, i32 1
  store ptr %37, ptr %7, align 8
  br label %13, !llvm.loop !4

38:                                               ; preds = %33
  %39 = load ptr, ptr %7, align 8
  %40 = load ptr, ptr %5, align 8
  %41 = getelementptr inbounds %struct.pj_wkt_parse_context, ptr %40, i32 0, i32 1
  store ptr %39, ptr %41, align 8
  %42 = load ptr, ptr %7, align 8
  %43 = load i8, ptr %42, align 1
  %44 = sext i8 %43 to i32
  %45 = icmp eq i32 %44, 0
  br i1 %45, label %46, label %50

46:                                               ; preds = %38
  %47 = load ptr, ptr %7, align 8
  %48 = load ptr, ptr %5, align 8
  %49 = getelementptr inbounds %struct.pj_wkt_parse_context, ptr %48, i32 0, i32 2
  store ptr %47, ptr %49, align 8
  store i32 -1, ptr %3, align 4
  br label %246

50:                                               ; preds = %38
  %51 = load ptr, ptr %7, align 8
  %52 = load i8, ptr %51, align 1
  %53 = sext i8 %52 to i32
  %54 = call i32 @isalpha(i32 noundef %53) #6
  %55 = icmp ne i32 %54, 0
  br i1 %55, label %56, label %98

56:                                               ; preds = %50
  store i64 0, ptr %6, align 8
  br label %57

57:                                               ; preds = %94, %56
  %58 = load i64, ptr %6, align 8
  %59 = icmp ult i64 %58, 150
  br i1 %59, label %60, label %97

60:                                               ; preds = %57
  %61 = load ptr, ptr %7, align 8
  %62 = load i64, ptr %6, align 8
  %63 = getelementptr inbounds [150 x %struct.wkt2_tokens], ptr @_ZL6tokens, i64 0, i64 %62
  %64 = getelementptr inbounds %struct.wkt2_tokens, ptr %63, i32 0, i32 0
  %65 = load ptr, ptr %64, align 16
  %66 = call noundef zeroext i1 @_ZN5osgeo4proj8internal14ci_starts_withEPKcS3_(ptr noundef %61, ptr noundef %65) #5
  br i1 %66, label %67, label %93

67:                                               ; preds = %60
  %68 = load ptr, ptr %7, align 8
  %69 = load i64, ptr %6, align 8
  %70 = getelementptr inbounds [150 x %struct.wkt2_tokens], ptr @_ZL6tokens, i64 0, i64 %69
  %71 = getelementptr inbounds %struct.wkt2_tokens, ptr %70, i32 0, i32 0
  %72 = load ptr, ptr %71, align 16
  %73 = call i64 @strlen(ptr noundef %72) #6
  %74 = getelementptr inbounds i8, ptr %68, i64 %73
  %75 = load i8, ptr %74, align 1
  %76 = sext i8 %75 to i32
  %77 = call i32 @isalpha(i32 noundef %76) #6
  %78 = icmp ne i32 %77, 0
  br i1 %78, label %93, label %79

79:                                               ; preds = %67
  %80 = load ptr, ptr %7, align 8
  %81 = load i64, ptr %6, align 8
  %82 = getelementptr inbounds [150 x %struct.wkt2_tokens], ptr @_ZL6tokens, i64 0, i64 %81
  %83 = getelementptr inbounds %struct.wkt2_tokens, ptr %82, i32 0, i32 0
  %84 = load ptr, ptr %83, align 16
  %85 = call i64 @strlen(ptr noundef %84) #6
  %86 = getelementptr inbounds i8, ptr %80, i64 %85
  %87 = load ptr, ptr %5, align 8
  %88 = getelementptr inbounds %struct.pj_wkt_parse_context, ptr %87, i32 0, i32 2
  store ptr %86, ptr %88, align 8
  %89 = load i64, ptr %6, align 8
  %90 = getelementptr inbounds [150 x %struct.wkt2_tokens], ptr @_ZL6tokens, i64 0, i64 %89
  %91 = getelementptr inbounds %struct.wkt2_tokens, ptr %90, i32 0, i32 1
  %92 = load i32, ptr %91, align 8
  store i32 %92, ptr %3, align 4
  br label %246

93:                                               ; preds = %67, %60
  br label %94

94:                                               ; preds = %93
  %95 = load i64, ptr %6, align 8
  %96 = add i64 %95, 1
  store i64 %96, ptr %6, align 8
  br label %57, !llvm.loop !6

97:                                               ; preds = %57
  br label %98

98:                                               ; preds = %97, %50
  %99 = load ptr, ptr %7, align 8
  %100 = load i8, ptr %99, align 1
  %101 = sext i8 %100 to i32
  %102 = icmp sge i32 %101, 48
  br i1 %102, label %103, label %165

103:                                              ; preds = %98
  %104 = load ptr, ptr %7, align 8
  %105 = load i8, ptr %104, align 1
  %106 = sext i8 %105 to i32
  %107 = icmp sle i32 %106, 57
  br i1 %107, label %108, label %165

108:                                              ; preds = %103
  %109 = load ptr, ptr %7, align 8
  %110 = load i8, ptr %109, align 1
  %111 = sext i8 %110 to i32
  %112 = icmp eq i32 %111, 49
  br i1 %112, label %123, label %113

113:                                              ; preds = %108
  %114 = load ptr, ptr %7, align 8
  %115 = load i8, ptr %114, align 1
  %116 = sext i8 %115 to i32
  %117 = icmp eq i32 %116, 50
  br i1 %117, label %123, label %118

118:                                              ; preds = %113
  %119 = load ptr, ptr %7, align 8
  %120 = load i8, ptr %119, align 1
  %121 = sext i8 %120 to i32
  %122 = icmp eq i32 %121, 51
  br i1 %122, label %123, label %143

123:                                              ; preds = %118, %113, %108
  %124 = load ptr, ptr %7, align 8
  %125 = getelementptr inbounds i8, ptr %124, i64 1
  %126 = load i8, ptr %125, align 1
  %127 = sext i8 %126 to i32
  %128 = icmp sge i32 %127, 48
  br i1 %128, label %129, label %135

129:                                              ; preds = %123
  %130 = load ptr, ptr %7, align 8
  %131 = getelementptr inbounds i8, ptr %130, i64 1
  %132 = load i8, ptr %131, align 1
  %133 = sext i8 %132 to i32
  %134 = icmp sle i32 %133, 57
  br i1 %134, label %143, label %135

135:                                              ; preds = %129, %123
  %136 = load ptr, ptr %7, align 8
  %137 = getelementptr inbounds i8, ptr %136, i64 1
  %138 = load ptr, ptr %5, align 8
  %139 = getelementptr inbounds %struct.pj_wkt_parse_context, ptr %138, i32 0, i32 2
  store ptr %137, ptr %139, align 8
  %140 = load ptr, ptr %7, align 8
  %141 = load i8, ptr %140, align 1
  %142 = sext i8 %141 to i32
  store i32 %142, ptr %3, align 4
  br label %246

143:                                              ; preds = %129, %118
  %144 = load ptr, ptr %7, align 8
  %145 = getelementptr inbounds i8, ptr %144, i32 1
  store ptr %145, ptr %7, align 8
  br label %146

146:                                              ; preds = %158, %143
  %147 = load ptr, ptr %7, align 8
  %148 = load i8, ptr %147, align 1
  %149 = sext i8 %148 to i32
  %150 = icmp sge i32 %149, 48
  br i1 %150, label %151, label %156

151:                                              ; preds = %146
  %152 = load ptr, ptr %7, align 8
  %153 = load i8, ptr %152, align 1
  %154 = sext i8 %153 to i32
  %155 = icmp sle i32 %154, 57
  br label %156

156:                                              ; preds = %151, %146
  %157 = phi i1 [ false, %146 ], [ %155, %151 ]
  br i1 %157, label %158, label %161

158:                                              ; preds = %156
  %159 = load ptr, ptr %7, align 8
  %160 = getelementptr inbounds i8, ptr %159, i32 1
  store ptr %160, ptr %7, align 8
  br label %146, !llvm.loop !7

161:                                              ; preds = %156
  %162 = load ptr, ptr %7, align 8
  %163 = load ptr, ptr %5, align 8
  %164 = getelementptr inbounds %struct.pj_wkt_parse_context, ptr %163, i32 0, i32 2
  store ptr %162, ptr %164, align 8
  store i32 409, ptr %3, align 4
  br label %246

165:                                              ; preds = %103, %98
  %166 = load ptr, ptr %7, align 8
  %167 = load i8, ptr %166, align 1
  %168 = sext i8 %167 to i32
  %169 = icmp eq i32 %168, 34
  br i1 %169, label %170, label %211

170:                                              ; preds = %165
  %171 = load ptr, ptr %7, align 8
  %172 = getelementptr inbounds i8, ptr %171, i32 1
  store ptr %172, ptr %7, align 8
  br label %173

173:                                              ; preds = %194, %170
  %174 = load ptr, ptr %7, align 8
  %175 = load i8, ptr %174, align 1
  %176 = sext i8 %175 to i32
  %177 = icmp ne i32 %176, 0
  br i1 %177, label %178, label %197

178:                                              ; preds = %173
  %179 = load ptr, ptr %7, align 8
  %180 = load i8, ptr %179, align 1
  %181 = sext i8 %180 to i32
  %182 = icmp eq i32 %181, 34
  br i1 %182, label %183, label %194

183:                                              ; preds = %178
  %184 = load ptr, ptr %7, align 8
  %185 = getelementptr inbounds i8, ptr %184, i64 1
  %186 = load i8, ptr %185, align 1
  %187 = sext i8 %186 to i32
  %188 = icmp eq i32 %187, 34
  br i1 %188, label %189, label %192

189:                                              ; preds = %183
  %190 = load ptr, ptr %7, align 8
  %191 = getelementptr inbounds i8, ptr %190, i32 1
  store ptr %191, ptr %7, align 8
  br label %193

192:                                              ; preds = %183
  br label %197

193:                                              ; preds = %189
  br label %194

194:                                              ; preds = %193, %178
  %195 = load ptr, ptr %7, align 8
  %196 = getelementptr inbounds i8, ptr %195, i32 1
  store ptr %196, ptr %7, align 8
  br label %173, !llvm.loop !8

197:                                              ; preds = %192, %173
  %198 = load ptr, ptr %7, align 8
  %199 = load i8, ptr %198, align 1
  %200 = sext i8 %199 to i32
  %201 = icmp eq i32 %200, 0
  br i1 %201, label %202, label %206

202:                                              ; preds = %197
  %203 = load ptr, ptr %7, align 8
  %204 = load ptr, ptr %5, align 8
  %205 = getelementptr inbounds %struct.pj_wkt_parse_context, ptr %204, i32 0, i32 2
  store ptr %203, ptr %205, align 8
  store i32 -1, ptr %3, align 4
  br label %246

206:                                              ; preds = %197
  %207 = load ptr, ptr %7, align 8
  %208 = getelementptr inbounds i8, ptr %207, i64 1
  %209 = load ptr, ptr %5, align 8
  %210 = getelementptr inbounds %struct.pj_wkt_parse_context, ptr %209, i32 0, i32 2
  store ptr %208, ptr %210, align 8
  store i32 408, ptr %3, align 4
  br label %246

211:                                              ; preds = %165
  store ptr @.str, ptr %8, align 8
  store ptr @.str.1, ptr %9, align 8
  %212 = load ptr, ptr %7, align 8
  %213 = load ptr, ptr %8, align 8
  %214 = call i32 @strncmp(ptr noundef %212, ptr noundef %213, i64 noundef 3) #6
  %215 = icmp eq i32 %214, 0
  br i1 %215, label %216, label %238

216:                                              ; preds = %211
  %217 = load ptr, ptr %7, align 8
  %218 = load ptr, ptr %9, align 8
  %219 = call noundef ptr @strstr(ptr noundef %217, ptr noundef %218) #6
  %220 = load ptr, ptr %5, align 8
  %221 = getelementptr inbounds %struct.pj_wkt_parse_context, ptr %220, i32 0, i32 2
  store ptr %219, ptr %221, align 8
  %222 = load ptr, ptr %5, align 8
  %223 = getelementptr inbounds %struct.pj_wkt_parse_context, ptr %222, i32 0, i32 2
  %224 = load ptr, ptr %223, align 8
  %225 = icmp eq ptr %224, null
  br i1 %225, label %226, label %233

226:                                              ; preds = %216
  %227 = load ptr, ptr %7, align 8
  %228 = load ptr, ptr %7, align 8
  %229 = call i64 @strlen(ptr noundef %228) #6
  %230 = getelementptr inbounds i8, ptr %227, i64 %229
  %231 = load ptr, ptr %5, align 8
  %232 = getelementptr inbounds %struct.pj_wkt_parse_context, ptr %231, i32 0, i32 2
  store ptr %230, ptr %232, align 8
  store i32 -1, ptr %3, align 4
  br label %246

233:                                              ; preds = %216
  %234 = load ptr, ptr %5, align 8
  %235 = getelementptr inbounds %struct.pj_wkt_parse_context, ptr %234, i32 0, i32 2
  %236 = load ptr, ptr %235, align 8
  %237 = getelementptr inbounds i8, ptr %236, i64 3
  store ptr %237, ptr %235, align 8
  store i32 408, ptr %3, align 4
  br label %246

238:                                              ; preds = %211
  %239 = load ptr, ptr %7, align 8
  %240 = getelementptr inbounds i8, ptr %239, i64 1
  %241 = load ptr, ptr %5, align 8
  %242 = getelementptr inbounds %struct.pj_wkt_parse_context, ptr %241, i32 0, i32 2
  store ptr %240, ptr %242, align 8
  %243 = load ptr, ptr %7, align 8
  %244 = load i8, ptr %243, align 1
  %245 = sext i8 %244 to i32
  store i32 %245, ptr %3, align 4
  br label %246

246:                                              ; preds = %238, %233, %226, %206, %202, %161, %135, %79, %46
  %247 = load i32, ptr %3, align 4
  ret i32 %247
}