; Function Attrs: mustprogress nounwind uwtable
define hidden i32 @pj_wkt2_lex(ptr nocapture noundef readnone %0, ptr nocapture noundef %1) local_unnamed_addr #3 {
  %3 = getelementptr inbounds i8, ptr %1, i64 16
  %4 = load ptr, ptr %3, align 8
  br label %5

5:                                                ; preds = %.critedge, %2
  %.066 = phi ptr [ %4, %2 ], [ %7, %.critedge ]
  %6 = load i8, ptr %.066, align 1
  switch i8 %6, label %8 [
    i8 32, label %.critedge
    i8 9, label %.critedge
    i8 10, label %.critedge
    i8 13, label %.critedge
  ]

.critedge:                                        ; preds = %5, %5, %5, %5
  %7 = getelementptr inbounds i8, ptr %.066, i64 1
  br label %5, !llvm.loop !4

8:                                                ; preds = %5
  %9 = getelementptr inbounds i8, ptr %1, i64 8
  store ptr %.066, ptr %9, align 8
  %10 = load i8, ptr %.066, align 1
  %11 = icmp eq i8 %10, 0
  br i1 %11, label %12, label %13

12:                                               ; preds = %8
  store ptr %.066, ptr %3, align 8
  br label %68

13:                                               ; preds = %8
  %14 = sext i8 %10 to i32
  %15 = tail call i32 @isalpha(i32 noundef %14) #8
  %.not = icmp eq i32 %15, 0
  br i1 %.not, label %.loopexit, label %.preheader79

.preheader79:                                     ; preds = %13, %29
  %.06584 = phi i64 [ %30, %29 ], [ 0, %13 ]
  %16 = getelementptr inbounds [150 x %struct.wkt2_tokens], ptr @_ZL6tokens, i64 0, i64 %.06584
  %17 = load ptr, ptr %16, align 16
  %18 = tail call noundef zeroext i1 @_ZN5osgeo4proj8internal14ci_starts_withEPKcS3_(ptr noundef nonnull %.066, ptr noundef %17) #7
  br i1 %18, label %19, label %29

19:                                               ; preds = %.preheader79
  %20 = tail call i64 @strlen(ptr noundef nonnull dereferenceable(1) %17) #8
  %21 = getelementptr inbounds i8, ptr %.066, i64 %20
  %22 = load i8, ptr %21, align 1
  %23 = sext i8 %22 to i32
  %24 = tail call i32 @isalpha(i32 noundef %23) #8
  %.not76 = icmp eq i32 %24, 0
  br i1 %.not76, label %25, label %29

25:                                               ; preds = %19
  %26 = getelementptr inbounds i8, ptr %.066, i64 %20
  store ptr %26, ptr %3, align 8
  %27 = getelementptr inbounds i8, ptr %16, i64 8
  %28 = load i32, ptr %27, align 8
  br label %68

29:                                               ; preds = %.preheader79, %19
  %30 = add nuw nsw i64 %.06584, 1
  %exitcond.not = icmp eq i64 %30, 150
  br i1 %exitcond.not, label %.loopexit.loopexit, label %.preheader79, !llvm.loop !6

.loopexit.loopexit:                               ; preds = %29
  %.pre = load i8, ptr %.066, align 1
  br label %.loopexit

.loopexit:                                        ; preds = %.loopexit.loopexit, %13
  %31 = phi i8 [ %.pre, %.loopexit.loopexit ], [ %10, %13 ]
  %32 = add i8 %31, -48
  %or.cond = icmp ult i8 %32, 10
  br i1 %or.cond, label %33, label %44

33:                                               ; preds = %.loopexit
  %.off = add nsw i8 %31, -49
  %switch = icmp ult i8 %.off, 3
  br i1 %switch, label %34, label %.preheader98

34:                                               ; preds = %33
  %35 = getelementptr inbounds i8, ptr %.066, i64 1
  %36 = load i8, ptr %35, align 1
  %37 = add i8 %36, -48
  %or.cond77 = icmp ult i8 %37, 10
  br i1 %or.cond77, label %.preheader98, label %38

.preheader98:                                     ; preds = %33, %34
  br label %41

38:                                               ; preds = %34
  store ptr %35, ptr %3, align 8
  %39 = load i8, ptr %.066, align 1
  %40 = sext i8 %39 to i32
  br label %68

41:                                               ; preds = %.preheader98, %41
  %.066.pn75 = phi ptr [ %.1, %41 ], [ %.066, %.preheader98 ]
  %.1 = getelementptr inbounds i8, ptr %.066.pn75, i64 1
  %42 = load i8, ptr %.1, align 1
  %43 = add i8 %42, -48
  %or.cond78 = icmp ult i8 %43, 10
  br i1 %or.cond78, label %41, label %.critedge2, !llvm.loop !7

.critedge2:                                       ; preds = %41
  store ptr %.1, ptr %3, align 8
  br label %68

44:                                               ; preds = %.loopexit
  %45 = icmp eq i8 %31, 34
  br i1 %45, label %.preheader, label %53

.preheader:                                       ; preds = %44, %.preheader.backedge
  %.066.pn = phi ptr [ %.066.pn.be, %.preheader.backedge ], [ %.066, %44 ]
  %.2 = getelementptr inbounds i8, ptr %.066.pn, i64 1
  %46 = load i8, ptr %.2, align 1
  switch i8 %46, label %.preheader.backedge [
    i8 0, label %51
    i8 34, label %47
  ]

47:                                               ; preds = %.preheader
  %48 = getelementptr inbounds i8, ptr %.066.pn, i64 2
  %49 = load i8, ptr %48, align 1
  %50 = icmp eq i8 %49, 34
  br i1 %50, label %.preheader.backedge, label %52

.preheader.backedge:                              ; preds = %47, %.preheader
  %.066.pn.be = phi ptr [ %.2, %.preheader ], [ %48, %47 ]
  br label %.preheader, !llvm.loop !8

51:                                               ; preds = %.preheader
  store ptr %.2, ptr %3, align 8
  br label %68

52:                                               ; preds = %47
  store ptr %48, ptr %3, align 8
  br label %68

53:                                               ; preds = %44
  %54 = tail call i32 @strncmp(ptr noundef nonnull dereferenceable(1) %.066, ptr noundef nonnull dereferenceable(4) @.str, i64 noundef 3) #8
  %55 = icmp eq i32 %54, 0
  br i1 %55, label %56, label %64

56:                                               ; preds = %53
  %57 = tail call noundef ptr @strstr(ptr noundef nonnull dereferenceable(1) %.066, ptr noundef nonnull dereferenceable(1) @.str.1) #8
  store ptr %57, ptr %3, align 8
  %58 = icmp eq ptr %57, null
  br i1 %58, label %59, label %62

59:                                               ; preds = %56
  %60 = tail call i64 @strlen(ptr noundef nonnull dereferenceable(1) %.066) #8
  %61 = getelementptr inbounds i8, ptr %.066, i64 %60
  store ptr %61, ptr %3, align 8
  br label %68

62:                                               ; preds = %56
  %63 = getelementptr inbounds i8, ptr %57, i64 3
  store ptr %63, ptr %3, align 8
  br label %68

64:                                               ; preds = %53
  %65 = getelementptr inbounds i8, ptr %.066, i64 1
  store ptr %65, ptr %3, align 8
  %66 = load i8, ptr %.066, align 1
  %67 = sext i8 %66 to i32
  br label %68

68:                                               ; preds = %64, %62, %59, %52, %51, %.critedge2, %38, %25, %12
  %.0 = phi i32 [ -1, %12 ], [ %28, %25 ], [ 409, %.critedge2 ], [ %40, %38 ], [ -1, %51 ], [ 408, %52 ], [ -1, %59 ], [ 408, %62 ], [ %67, %64 ]
  ret i32 %.0
}